target datalayout = "e-m:e-p270:32:32-p271:32:32-p272:64:64-i64:64-i128:128-f80:128-n8:16:32:64-S128"
target triple = "x86_64-pc-linux-gnu"

%struct.Hop_Man_t_ = type { ptr, ptr, ptr, ptr, %struct.Hop_Obj_t_, [6 x i32], i32, i32, ptr, i32, ptr, i32, i32, i32, ptr, ptr, ptr, i64, i64 }
%struct.Hop_Obj_t_ = type { %union.anon, %union.anon.0, ptr, ptr, i32, i32 }
%union.anon = type { ptr }
%union.anon.0 = type { ptr }
%struct.Vec_Ptr_t_ = type { i32, i32, ptr }

@.str = private unnamed_addr constant [5 x i8] c"%s =\00", align 1
@.str.1 = private unnamed_addr constant [6 x i8] c"time1\00", align 1
@.str.2 = private unnamed_addr constant [11 x i8] c"%9.2f sec\0A\00", align 1
@.str.3 = private unnamed_addr constant [6 x i8] c"time2\00", align 1

; Function Attrs: inlinehint nounwind uwtable
define internal void @Vec_PtrFree(ptr noundef %0) #4 {
  %2 = alloca ptr, align 8
  store ptr %0, ptr %2, align 8, !tbaa !25
  %3 = load ptr, ptr %2, align 8, !tbaa !25
  %4 = getelementptr inbounds nuw %struct.Vec_Ptr_t_, ptr %3, i32 0, i32 2
  %5 = load ptr, ptr %4, align 8, !tbaa !29
  %6 = icmp ne ptr %5, null
  br i1 %6, label %7, label %13

7:                                                ; preds = %1
  %8 = load ptr, ptr %2, align 8, !tbaa !25
  %9 = getelementptr inbounds nuw %struct.Vec_Ptr_t_, ptr %8, i32 0, i32 2
  %10 = load ptr, ptr %9, align 8, !tbaa !29
  call void @free(ptr noundef %10) #10
  %11 = load ptr, ptr %2, align 8, !tbaa !25
  %12 = getelementptr inbounds nuw %struct.Vec_Ptr_t_, ptr %11, i32 0, i32 2
  store ptr null, ptr %12, align 8, !tbaa !29
  br label %14

13:                                               ; preds = %1
  br label %14

14:                                               ; preds = %13, %7
  %15 = load ptr, ptr %2, align 8, !tbaa !25
  %16 = icmp ne ptr %15, null
  br i1 %16, label %17, label %19

17:                                               ; preds = %14
  %18 = load ptr, ptr %2, align 8, !tbaa !25
  call void @free(ptr noundef %18) #10
  store ptr null, ptr %2, align 8, !tbaa !25
  br label %20

19:                                               ; preds = %14
  br label %20

20:                                               ; preds = %19, %17
  ret void
}

; Function Attrs: inlinehint nounwind uwtable
define internal ptr @Vec_PtrEntry(ptr noundef %0, i32 noundef %1) #4 {
  %3 = alloca ptr, align 8
  %4 = alloca i32, align 4
  store ptr %0, ptr %3, align 8, !tbaa !25
  store i32 %1, ptr %4, align 4, !tbaa !24
  %5 = load ptr, ptr %3, align 8, !tbaa !25
  %6 = getelementptr inbounds nuw %struct.Vec_Ptr_t_, ptr %5, i32 0, i32 2
  %7 = load ptr, ptr %6, align 8, !tbaa !29
  %8 = load i32, ptr %4, align 4, !tbaa !24
  %9 = sext i32 %8 to i64
  %10 = getelementptr inbounds ptr, ptr %7, i64 %9
  %11 = load ptr, ptr %10, align 8, !tbaa !41
  ret ptr %11
}

; Function Attrs: inlinehint nounwind uwtable
define internal i32 @Vec_PtrSize(ptr noundef %0) #4 {
  %2 = alloca ptr, align 8
  store ptr %0, ptr %2, align 8, !tbaa !25
  %3 = load ptr, ptr %2, align 8, !tbaa !25
  %4 = getelementptr inbounds nuw %struct.Vec_Ptr_t_, ptr %3, i32 0, i32 1
  %5 = load i32, ptr %4, align 4, !tbaa !26
  ret i32 %5
}

; Function Attrs: inlinehint nounwind uwtable
define internal ptr @Hop_ManConst1(ptr noundef %0) #4 {
  %2 = alloca ptr, align 8
  store ptr %0, ptr %2, align 8, !tbaa !3
  %3 = load ptr, ptr %2, align 8, !tbaa !3
  %4 = getelementptr inbounds nuw %struct.Hop_Man_t_, ptr %3, i32 0, i32 3
  %5 = load ptr, ptr %4, align 8, !tbaa !20
  ret ptr %5
}

; Function Attrs: nounwind uwtable
define void @Hop_ManStop(ptr noundef %0) #0 {
  %2 = alloca ptr, align 8
  %3 = alloca ptr, align 8
  %4 = alloca i32, align 4
  store ptr %0, ptr %2, align 8, !tbaa !3
  call void @llvm.lifetime.start.p0(i64 8, ptr %3) #10
  call void @llvm.lifetime.start.p0(i64 4, ptr %4) #10
  %5 = load ptr, ptr %2, align 8, !tbaa !3
  %6 = call ptr @Hop_ManConst1(ptr noundef %5)
  store ptr %6, ptr %3, align 8, !tbaa !31
  store i32 0, ptr %4, align 4, !tbaa !24
  br label %7

7:                                                ; preds = %23, %1
  %8 = load i32, ptr %4, align 4, !tbaa !24
  %9 = load ptr, ptr %2, align 8, !tbaa !3
  %10 = getelementptr inbounds nuw %struct.Hop_Man_t_, ptr %9, i32 0, i32 0
  %11 = load ptr, ptr %10, align 8, !tbaa !18
  %12 = call i32 @Vec_PtrSize(ptr noundef %11)
  %13 = icmp slt i32 %8, %12
  br i1 %13, label %14, label %20

14:                                               ; preds = %7
  %15 = load ptr, ptr %2, align 8, !tbaa !3
  %16 = getelementptr inbounds nuw %struct.Hop_Man_t_, ptr %15, i32 0, i32 0
  %17 = load ptr, ptr %16, align 8, !tbaa !18
  %18 = load i32, ptr %4, align 4, !tbaa !24
  %19 = call ptr @Vec_PtrEntry(ptr noundef %17, i32 noundef %18)
  store ptr %19, ptr %3, align 8, !tbaa !31
  br label %20

20:                                               ; preds = %14, %7
  %21 = phi i1 [ false, %7 ], [ true, %14 ]
  br i1 %21, label %22, label %26

22:                                               ; preds = %20
  br label %23

23:                                               ; preds = %22
  %24 = load i32, ptr %4, align 4, !tbaa !24
  %25 = add nsw i32 %24, 1
  store i32 %25, ptr %4, align 4, !tbaa !24
  br label %7, !llvm.loop !34

26:                                               ; preds = %20
  store i32 0, ptr %4, align 4, !tbaa !24
  br label %27

27:                                               ; preds = %43, %26
  %28 = load i32, ptr %4, align 4, !tbaa !24
  %29 = load ptr, ptr %2, align 8, !tbaa !3
  %30 = getelementptr inbounds nuw %struct.Hop_Man_t_, ptr %29, i32 0, i32 1
  %31 = load ptr, ptr %30, align 8, !tbaa !19
  %32 = call i32 @Vec_PtrSize(ptr noundef %31)
  %33 = icmp slt i32 %28, %32
  br i1 %33, label %34, label %40

34:                                               ; preds = %27
  %35 = load ptr, ptr %2, align 8, !tbaa !3
  %36 = getelementptr inbounds nuw %struct.Hop_Man_t_, ptr %35, i32 0, i32 1
  %37 = load ptr, ptr %36, align 8, !tbaa !19
  %38 = load i32, ptr %4, align 4, !tbaa !24
  %39 = call ptr @Vec_PtrEntry(ptr noundef %37, i32 noundef %38)
  store ptr %39, ptr %3, align 8, !tbaa !31
  br label %40

40:                                               ; preds = %34, %27
  %41 = phi i1 [ false, %27 ], [ true, %34 ]
  br i1 %41, label %42, label %46

42:                                               ; preds = %40
  br label %43

43:                                               ; preds = %42
  %44 = load i32, ptr %4, align 4, !tbaa !24
  %45 = add nsw i32 %44, 1
  store i32 %45, ptr %4, align 4, !tbaa !24
  br label %27, !llvm.loop !36

46:                                               ; preds = %40
  store i32 0, ptr %4, align 4, !tbaa !24
  br label %47

47:                                               ; preds = %65, %46
  %48 = load i32, ptr %4, align 4, !tbaa !24
  %49 = load ptr, ptr %2, align 8, !tbaa !3
  %50 = getelementptr inbounds nuw %struct.Hop_Man_t_, ptr %49, i32 0, i32 9
  %51 = load i32, ptr %50, align 8, !tbaa !22
  %52 = icmp slt i32 %48, %51
  br i1 %52, label %53, label %68

53:                                               ; preds = %47
  %54 = load ptr, ptr %2, align 8, !tbaa !3
  %55 = getelementptr inbounds nuw %struct.Hop_Man_t_, ptr %54, i32 0, i32 8
  %56 = load ptr, ptr %55, align 8, !tbaa !23
  %57 = load i32, ptr %4, align 4, !tbaa !24
  %58 = sext i32 %57 to i64
  %59 = getelementptr inbounds ptr, ptr %56, i64 %58
  %60 = load ptr, ptr %59, align 8, !tbaa !31
  store ptr %60, ptr %3, align 8, !tbaa !31
  %61 = icmp eq ptr %60, null
  br i1 %61, label %62, label %63

62:                                               ; preds = %53
  br label %64

63:                                               ; preds = %53
  br label %64

64:                                               ; preds = %63, %62
  br label %65

65:                                               ; preds = %64
  %66 = load i32, ptr %4, align 4, !tbaa !24
  %67 = add nsw i32 %66, 1
  store i32 %67, ptr %4, align 4, !tbaa !24
  br label %47, !llvm.loop !37

68:                                               ; preds = %47
  %69 = load ptr, ptr %2, align 8, !tbaa !3
  %70 = getelementptr inbounds nuw %struct.Hop_Man_t_, ptr %69, i32 0, i32 17
  %71 = load i64, ptr %70, align 8, !tbaa !38
  %72 = icmp ne i64 %71, 0
  br i1 %72, label %73, label %80

73:                                               ; preds = %68
  call void (i32, ptr, ...) @Abc_Print(i32 noundef 1, ptr noundef @.str, ptr noundef @.str.1)
  %74 = load ptr, ptr %2, align 8, !tbaa !3
  %75 = getelementptr inbounds nuw %struct.Hop_Man_t_, ptr %74, i32 0, i32 17
  %76 = load i64, ptr %75, align 8, !tbaa !38
  %77 = sitofp i64 %76 to double
  %78 = fmul double 1.000000e+00, %77
  %79 = fdiv double %78, 1.000000e+06
  call void (i32, ptr, ...) @Abc_Print(i32 noundef 1, ptr noundef @.str.2, double noundef %79)
  br label %80

80:                                               ; preds = %73, %68
  %81 = load ptr, ptr %2, align 8, !tbaa !3
  %82 = getelementptr inbounds nuw %struct.Hop_Man_t_, ptr %81, i32 0, i32 18
  %83 = load i64, ptr %82, align 8, !tbaa !39
  %84 = icmp ne i64 %83, 0
  br i1 %84, label %85, label %92

85:                                               ; preds = %80
  call void (i32, ptr, ...) @Abc_Print(i32 noundef 1, ptr noundef @.str, ptr noundef @.str.3)
  %86 = load ptr, ptr %2, align 8, !tbaa !3
  %87 = getelementptr inbounds nuw %struct.Hop_Man_t_, ptr %86, i32 0, i32 18
  %88 = load i64, ptr %87, align 8, !tbaa !39
  %89 = sitofp i64 %88 to double
  %90 = fmul double 1.000000e+00, %89
  %91 = fdiv double %90, 1.000000e+06
  call void (i32, ptr, ...) @Abc_Print(i32 noundef 1, ptr noundef @.str.2, double noundef %91)
  br label %92

92:                                               ; preds = %85, %80
  %93 = load ptr, ptr %2, align 8, !tbaa !3
  %94 = getelementptr inbounds nuw %struct.Hop_Man_t_, ptr %93, i32 0, i32 14
  %95 = load ptr, ptr %94, align 8, !tbaa !40
  %96 = icmp ne ptr %95, null
  br i1 %96, label %97, label %99

97:                                               ; preds = %92
  %98 = load ptr, ptr %2, align 8, !tbaa !3
  call void @Hop_ManStopMemory(ptr noundef %98)
  br label %99

99:                                               ; preds = %97, %92
  %100 = load ptr, ptr %2, align 8, !tbaa !3
  %101 = getelementptr inbounds nuw %struct.Hop_Man_t_, ptr %100, i32 0, i32 0
  %102 = load ptr, ptr %101, align 8, !tbaa !18
  %103 = icmp ne ptr %102, null
  br i1 %103, label %104, label %108

104:                                              ; preds = %99
  %105 = load ptr, ptr %2, align 8, !tbaa !3
  %106 = getelementptr inbounds nuw %struct.Hop_Man_t_, ptr %105, i32 0, i32 0
  %107 = load ptr, ptr %106, align 8, !tbaa !18
  call void @Vec_PtrFree(ptr noundef %107)
  br label %108

108:                                              ; preds = %104, %99
  %109 = load ptr, ptr %2, align 8, !tbaa !3
  %110 = getelementptr inbounds nuw %struct.Hop_Man_t_, ptr %109, i32 0, i32 1
  %111 = load ptr, ptr %110, align 8, !tbaa !19
  %112 = icmp ne ptr %111, null
  br i1 %112, label %113, label %117

113:                                              ; preds = %108
  %114 = load ptr, ptr %2, align 8, !tbaa !3
  %115 = getelementptr inbounds nuw %struct.Hop_Man_t_, ptr %114, i32 0, i32 1
  %116 = load ptr, ptr %115, align 8, !tbaa !19
  call void @Vec_PtrFree(ptr noundef %116)
  br label %117

117:                                              ; preds = %113, %108
  %118 = load ptr, ptr %2, align 8, !tbaa !3
  %119 = getelementptr inbounds nuw %struct.Hop_Man_t_, ptr %118, i32 0, i32 2
  %120 = load ptr, ptr %119, align 8, !tbaa !32
  %121 = icmp ne ptr %120, null
  br i1 %121, label %122, label %126

122:                                              ; preds = %117
  %123 = load ptr, ptr %2, align 8, !tbaa !3
  %124 = getelementptr inbounds nuw %struct.Hop_Man_t_, ptr %123, i32 0, i32 2
  %125 = load ptr, ptr %124, align 8, !tbaa !32
  call void @Vec_PtrFree(ptr noundef %125)
  br label %126

126:                                              ; preds = %122, %117
  %127 = load ptr, ptr %2, align 8, !tbaa !3
  %128 = getelementptr inbounds nuw %struct.Hop_Man_t_, ptr %127, i32 0, i32 8
  %129 = load ptr, ptr %128, align 8, !tbaa !23
  %130 = icmp ne ptr %129, null
  br i1 %130, label %131, label %137

131:                                              ; preds = %126
  %132 = load ptr, ptr %2, align 8, !tbaa !3
  %133 = getelementptr inbounds nuw %struct.Hop_Man_t_, ptr %132, i32 0, i32 8
  %134 = load ptr, ptr %133, align 8, !tbaa !23
  call void @free(ptr noundef %134) #10
  %135 = load ptr, ptr %2, align 8, !tbaa !3
  %136 = getelementptr inbounds nuw %struct.Hop_Man_t_, ptr %135, i32 0, i32 8
  store ptr null, ptr %136, align 8, !tbaa !23
  br label %138

137:                                              ; preds = %126
  br label %138

138:                                              ; preds = %137, %131
  %139 = load ptr, ptr %2, align 8, !tbaa !3
  %140 = icmp ne ptr %139, null
  br i1 %140, label %141, label %143

141:                                              ; preds = %138
  %142 = load ptr, ptr %2, align 8, !tbaa !3
  call void @free(ptr noundef %142) #10
  store ptr null, ptr %2, align 8, !tbaa !3
  br label %144

143:                                              ; preds = %138
  br label %144

144:                                              ; preds = %143, %141
  call void @llvm.lifetime.end.p0(i64 4, ptr %4) #10
  call void @llvm.lifetime.end.p0(i64 8, ptr %3) #10
  ret void
}