; Function Attrs: nounwind uwtable
define void @Hop_ManStop(ptr noundef %0) local_unnamed_addr #0 {
.critedge.preheader:
  %1 = getelementptr inbounds nuw i8, ptr %0, i64 8
  %2 = getelementptr inbounds nuw i8, ptr %0, i64 168
  %3 = load i64, ptr %2, align 8, !tbaa !30
  %.not = icmp eq i64 %3, 0
  br i1 %.not, label %8, label %4

4:                                                ; preds = %.critedge.preheader
  tail call void (i32, ptr, ...) @Abc_Print(i32 poison, ptr noundef nonnull @.str, ptr noundef nonnull @.str.1)
  %5 = load i64, ptr %2, align 8, !tbaa !30
  %6 = sitofp i64 %5 to double
  %7 = fdiv double %6, 1.000000e+06
  tail call void (i32, ptr, ...) @Abc_Print(i32 poison, ptr noundef nonnull @.str.2, double noundef %7)
  br label %8

8:                                                ; preds = %4, %.critedge.preheader
  %9 = getelementptr inbounds nuw i8, ptr %0, i64 176
  %10 = load i64, ptr %9, align 8, !tbaa !31
  %.not38 = icmp eq i64 %10, 0
  br i1 %.not38, label %15, label %11

11:                                               ; preds = %8
  tail call void (i32, ptr, ...) @Abc_Print(i32 poison, ptr noundef nonnull @.str, ptr noundef nonnull @.str.3)
  %12 = load i64, ptr %9, align 8, !tbaa !31
  %13 = sitofp i64 %12 to double
  %14 = fdiv double %13, 1.000000e+06
  tail call void (i32, ptr, ...) @Abc_Print(i32 poison, ptr noundef nonnull @.str.2, double noundef %14)
  br label %15

15:                                               ; preds = %11, %8
  %16 = getelementptr inbounds nuw i8, ptr %0, i64 144
  %17 = load ptr, ptr %16, align 8, !tbaa !32
  %.not39 = icmp eq ptr %17, null
  br i1 %.not39, label %19, label %18

18:                                               ; preds = %15
  tail call void @Hop_ManStopMemory(ptr noundef nonnull %0) #14
  br label %19

19:                                               ; preds = %18, %15
  %20 = load ptr, ptr %0, align 8, !tbaa !19
  %.not40 = icmp eq ptr %20, null
  br i1 %.not40, label %25, label %21

21:                                               ; preds = %19
  %22 = getelementptr inbounds nuw i8, ptr %20, i64 8
  %23 = load ptr, ptr %22, align 8, !tbaa !18
  %.not.i = icmp eq ptr %23, null
  br i1 %.not.i, label %Vec_PtrFree.exit, label %24

24:                                               ; preds = %21
  tail call void @free(ptr noundef nonnull %23) #14
  br label %Vec_PtrFree.exit

Vec_PtrFree.exit:                                 ; preds = %21, %24
  tail call void @free(ptr noundef nonnull %20) #14
  br label %25

25:                                               ; preds = %Vec_PtrFree.exit, %19
  %26 = load ptr, ptr %1, align 8, !tbaa !20
  %.not41 = icmp eq ptr %26, null
  br i1 %.not41, label %31, label %27

27:                                               ; preds = %25
  %28 = getelementptr inbounds nuw i8, ptr %26, i64 8
  %29 = load ptr, ptr %28, align 8, !tbaa !18
  %.not.i48 = icmp eq ptr %29, null
  br i1 %.not.i48, label %Vec_PtrFree.exit49, label %30

30:                                               ; preds = %27
  tail call void @free(ptr noundef nonnull %29) #14
  br label %Vec_PtrFree.exit49

Vec_PtrFree.exit49:                               ; preds = %27, %30
  tail call void @free(ptr noundef nonnull %26) #14
  br label %31

31:                                               ; preds = %Vec_PtrFree.exit49, %25
  %32 = getelementptr inbounds nuw i8, ptr %0, i64 16
  %33 = load ptr, ptr %32, align 8, !tbaa !23
  %.not42 = icmp eq ptr %33, null
  br i1 %.not42, label %38, label %34

34:                                               ; preds = %31
  %35 = getelementptr inbounds nuw i8, ptr %33, i64 8
  %36 = load ptr, ptr %35, align 8, !tbaa !18
  %.not.i50 = icmp eq ptr %36, null
  br i1 %.not.i50, label %Vec_PtrFree.exit51, label %37

37:                                               ; preds = %34
  tail call void @free(ptr noundef nonnull %36) #14
  br label %Vec_PtrFree.exit51

Vec_PtrFree.exit51:                               ; preds = %34, %37
  tail call void @free(ptr noundef nonnull %33) #14
  br label %38

38:                                               ; preds = %Vec_PtrFree.exit51, %31
  %39 = getelementptr inbounds nuw i8, ptr %0, i64 104
  %40 = load ptr, ptr %39, align 8, !tbaa !29
  %.not43 = icmp eq ptr %40, null
  br i1 %.not43, label %42, label %41

41:                                               ; preds = %38
  tail call void @free(ptr noundef nonnull %40) #14
  br label %42

42:                                               ; preds = %41, %38
  tail call void @free(ptr noundef nonnull %0) #14
  ret void
}